
main.elf:     file format elf32-littlearm


Disassembly of section .vector_table:

08000000 <vtable>:
 8000000:	20001000 	andcs	r1, r0, r0
 8000004:	080000c5 	stmdaeq	r0, {r0, r2, r6, r7}
 8000008:	0800011a 	stmdaeq	r0, {r1, r3, r4, r8}
 800000c:	0800011a 	stmdaeq	r0, {r1, r3, r4, r8}
	...
 800002c:	0800011a 	stmdaeq	r0, {r1, r3, r4, r8}
	...
 8000038:	0800011a 	stmdaeq	r0, {r1, r3, r4, r8}
 800003c:	0800011a 	stmdaeq	r0, {r1, r3, r4, r8}
 8000040:	0800011a 	stmdaeq	r0, {r1, r3, r4, r8}
 8000044:	0800011a 	stmdaeq	r0, {r1, r3, r4, r8}
 8000048:	0800011a 	stmdaeq	r0, {r1, r3, r4, r8}
 800004c:	0800011a 	stmdaeq	r0, {r1, r3, r4, r8}
 8000050:	0800011a 	stmdaeq	r0, {r1, r3, r4, r8}
 8000054:	0800011a 	stmdaeq	r0, {r1, r3, r4, r8}
 8000058:	0800011a 	stmdaeq	r0, {r1, r3, r4, r8}
 800005c:	0800011a 	stmdaeq	r0, {r1, r3, r4, r8}
 8000060:	00000000 	andeq	r0, r0, r0
 8000064:	0800011a 	stmdaeq	r0, {r1, r3, r4, r8}
 8000068:	0800011a 	stmdaeq	r0, {r1, r3, r4, r8}
 800006c:	0800011a 	stmdaeq	r0, {r1, r3, r4, r8}
 8000070:	0800011a 	stmdaeq	r0, {r1, r3, r4, r8}
 8000074:	0800011a 	stmdaeq	r0, {r1, r3, r4, r8}
 8000078:	0800011a 	stmdaeq	r0, {r1, r3, r4, r8}
 800007c:	0800011a 	stmdaeq	r0, {r1, r3, r4, r8}
 8000080:	0800011a 	stmdaeq	r0, {r1, r3, r4, r8}
	...
 800008c:	0800011a 	stmdaeq	r0, {r1, r3, r4, r8}
 8000090:	00000000 	andeq	r0, r0, r0
 8000094:	0800011a 	stmdaeq	r0, {r1, r3, r4, r8}
 8000098:	0800011a 	stmdaeq	r0, {r1, r3, r4, r8}
 800009c:	0800011a 	stmdaeq	r0, {r1, r3, r4, r8}
 80000a0:	00000000 	andeq	r0, r0, r0
 80000a4:	0800011a 	stmdaeq	r0, {r1, r3, r4, r8}
 80000a8:	00000000 	andeq	r0, r0, r0
 80000ac:	0800011a 	stmdaeq	r0, {r1, r3, r4, r8}
	...
 80000c0:	f108f85f 			; <UNDEFINED> instruction: 0xf108f85f

Disassembly of section .text:

080000c4 <reset_handler>:
 80000c4:	480a      	ldr	r0, [pc, #40]	; (80000f0 <reset_bss_loop+0x6>)
 80000c6:	4685      	mov	sp, r0
 80000c8:	2000      	movs	r0, #0
 80000ca:	490a      	ldr	r1, [pc, #40]	; (80000f4 <reset_bss_loop+0xa>)
 80000cc:	4a0a      	ldr	r2, [pc, #40]	; (80000f8 <reset_bss_loop+0xe>)
 80000ce:	4b0b      	ldr	r3, [pc, #44]	; (80000fc <reset_bss_loop+0x12>)
 80000d0:	e002      	b.n	80000d8 <copy_sidata_loop>

080000d2 <copy_sidata>:
 80000d2:	581c      	ldr	r4, [r3, r0]
 80000d4:	500c      	str	r4, [r1, r0]
 80000d6:	3004      	adds	r0, #4

080000d8 <copy_sidata_loop>:
 80000d8:	1844      	adds	r4, r0, r1
 80000da:	4294      	cmp	r4, r2
 80000dc:	d3f9      	bcc.n	80000d2 <copy_sidata>
 80000de:	2000      	movs	r0, #0
 80000e0:	4907      	ldr	r1, [pc, #28]	; (8000100 <reset_bss_loop+0x16>)
 80000e2:	4a08      	ldr	r2, [pc, #32]	; (8000104 <reset_bss_loop+0x1a>)
 80000e4:	e001      	b.n	80000ea <reset_bss_loop>

080000e6 <reset_bss>:
 80000e6:	6008      	str	r0, [r1, #0]
 80000e8:	3104      	adds	r1, #4

080000ea <reset_bss_loop>:
 80000ea:	4291      	cmp	r1, r2
 80000ec:	d3fb      	bcc.n	80000e6 <reset_bss>
 80000ee:	e00b      	b.n	8000108 <main>
 80000f0:	20001000 	andcs	r1, r0, r0
 80000f4:	20000000 	andcs	r0, r0, r0
 80000f8:	20000004 	andcs	r0, r0, r4
 80000fc:	0800011c 	stmdaeq	r0, {r2, r3, r4, r8}
 8000100:	20000004 	andcs	r0, r0, r4
 8000104:	20000004 	andcs	r0, r0, r4

08000108 <main>:
 8000108:	b580      	push	{r7, lr}
 800010a:	b082      	sub	sp, #8
 800010c:	af00      	add	r7, sp, #0
 800010e:	2300      	movs	r3, #0
 8000110:	607b      	str	r3, [r7, #4]
 8000112:	687b      	ldr	r3, [r7, #4]
 8000114:	3301      	adds	r3, #1
 8000116:	607b      	str	r3, [r7, #4]
 8000118:	e7fb      	b.n	8000112 <main+0xa>

0800011a <default_interrupt_handler>:
 800011a:	e7fe      	b.n	800011a <default_interrupt_handler>
